target datalayout = "e-m:e-p270:32:32-p271:32:32-p272:64:64-i64:64-i128:128-f80:128-n8:16:32:64-S128"
target triple = "x86_64-pc-linux-gnu"

%struct.__sigset_t = type { [16 x i64] }

@PyExc_OSError = external global ptr, align 8

; Function Attrs: nounwind uwtable
define internal ptr @signal_sigpending_impl(ptr noundef %0) #0 {
  %2 = alloca ptr, align 8
  %3 = alloca ptr, align 8
  %4 = alloca i32, align 4
  %5 = alloca %struct.__sigset_t, align 8
  %6 = alloca i32, align 4
  store ptr %0, ptr %3, align 8, !tbaa !179
  call void @llvm.lifetime.start.p0(i64 4, ptr %4) #10
  call void @llvm.lifetime.start.p0(i64 128, ptr %5) #10
  %7 = call i32 @sigpending(ptr noundef %5) #10
  store i32 %7, ptr %4, align 4, !tbaa !4
  %8 = load i32, ptr %4, align 4, !tbaa !4
  %9 = icmp ne i32 %8, 0
  br i1 %9, label %10, label %13

10:                                               ; preds = %1
  %11 = load ptr, ptr @PyExc_OSError, align 8, !tbaa !179
  %12 = call ptr @PyErr_SetFromErrno(ptr noundef %11)
  store ptr %12, ptr %2, align 8
  store i32 1, ptr %6, align 4
  br label %15

13:                                               ; preds = %1
  %14 = call ptr @sigset_to_set(ptr noundef byval(%struct.__sigset_t) align 8 %5)
  store ptr %14, ptr %2, align 8
  store i32 1, ptr %6, align 4
  br label %15

15:                                               ; preds = %13, %10
  call void @llvm.lifetime.end.p0(i64 128, ptr %5) #10
  call void @llvm.lifetime.end.p0(i64 4, ptr %4) #10
  %16 = load ptr, ptr %2, align 8
  ret ptr %16
}

; Function Attrs: nounwind uwtable
define internal ptr @signal_sigpending(ptr noundef %0, ptr noundef %1) #0 {
  %3 = alloca ptr, align 8
  %4 = alloca ptr, align 8
  store ptr %0, ptr %3, align 8, !tbaa !179
  store ptr %1, ptr %4, align 8, !tbaa !179
  %5 = load ptr, ptr %3, align 8, !tbaa !179
  %6 = call ptr @signal_sigpending_impl(ptr noundef %5)
  ret ptr %6
}