; Function Attrs: nounwind uwtable
define internal ptr @signal_sigpending(ptr readnone captures(none) %0, ptr readnone captures(none) %1) #2 {
  %3 = alloca %struct.__sigset_t, align 8
  call void @llvm.lifetime.start.p0(i64 128, ptr nonnull %3) #15
  %4 = call i32 @sigpending(ptr noundef nonnull %3) #15
  %.not.i = icmp eq i32 %4, 0
  br i1 %.not.i, label %8, label %5

5:                                                ; preds = %2
  %6 = load ptr, ptr @PyExc_OSError, align 8, !tbaa !176
  %7 = call ptr @PyErr_SetFromErrno(ptr noundef %6) #15
  br label %signal_sigpending_impl.exit

8:                                                ; preds = %2
  %9 = call fastcc ptr @sigset_to_set(ptr noundef nonnull byval(%struct.__sigset_t) align 8 %3)
  br label %signal_sigpending_impl.exit

signal_sigpending_impl.exit:                      ; preds = %5, %8
  %.0.i = phi ptr [ %7, %5 ], [ %9, %8 ]
  call void @llvm.lifetime.end.p0(i64 128, ptr nonnull %3) #15
  ret ptr %.0.i
}